target datalayout = "e-m:e-p270:32:32-p271:32:32-p272:64:64-i64:64-i128:128-f80:128-n8:16:32:64-S128"
target triple = "x86_64-pc-linux-gnu"

%struct._zend_refcounted_h = type { i32, %union.anon.3 }
%union.anon.3 = type { i32 }

@zend_string_init_interned = external global ptr, align 8

; Function Attrs: nounwind uwtable
define void @zend_enum_add_case_cstr(ptr noundef %0, ptr noundef %1, ptr noundef %2) #0 {
  %4 = alloca ptr, align 8
  %5 = alloca i32, align 4
  %6 = alloca i32, align 4
  %7 = alloca ptr, align 8
  %8 = alloca ptr, align 8
  %9 = alloca ptr, align 8
  %10 = alloca ptr, align 8
  %11 = alloca ptr, align 8
  store ptr %0, ptr %8, align 8
  store ptr %1, ptr %9, align 8
  store ptr %2, ptr %10, align 8
  %12 = load ptr, ptr @zend_string_init_interned, align 8
  %13 = load ptr, ptr %9, align 8
  %14 = load ptr, ptr %9, align 8
  %15 = call i64 @strlen(ptr noundef %14) #13
  %16 = call ptr %12(ptr noundef %13, i64 noundef %15, i1 noundef zeroext true)
  store ptr %16, ptr %11, align 8
  %17 = load ptr, ptr %8, align 8
  %18 = load ptr, ptr %11, align 8
  %19 = load ptr, ptr %10, align 8
  call void @zend_enum_add_case(ptr noundef %17, ptr noundef %18, ptr noundef %19)
  %20 = load ptr, ptr %11, align 8
  store ptr %20, ptr %7, align 8
  %21 = load ptr, ptr %7, align 8
  %22 = getelementptr inbounds %struct._zend_refcounted_h, ptr %21, i32 0, i32 1
  %23 = load i32, ptr %22, align 4
  store i32 %23, ptr %5, align 4
  %24 = load i32, ptr %5, align 4
  %25 = and i32 %24, 1008
  %26 = and i32 %25, 64
  %27 = icmp ne i32 %26, 0
  br i1 %27, label %51, label %28

28:                                               ; preds = %3
  %29 = load ptr, ptr %7, align 8
  store ptr %29, ptr %4, align 8
  %30 = load ptr, ptr %4, align 8
  %31 = load i32, ptr %30, align 4
  %32 = icmp ugt i32 %31, 0
  call void @llvm.assume(i1 %32)
  %33 = load ptr, ptr %4, align 8
  %34 = load i32, ptr %33, align 4
  %35 = add i32 %34, -1
  store i32 %35, ptr %33, align 4
  %36 = icmp eq i32 %35, 0
  br i1 %36, label %37, label %50

37:                                               ; preds = %28
  %38 = load ptr, ptr %7, align 8
  %39 = getelementptr inbounds %struct._zend_refcounted_h, ptr %38, i32 0, i32 1
  %40 = load i32, ptr %39, align 4
  store i32 %40, ptr %6, align 4
  %41 = load i32, ptr %6, align 4
  %42 = and i32 %41, 1008
  %43 = and i32 %42, 128
  %44 = icmp ne i32 %43, 0
  br i1 %44, label %45, label %47

45:                                               ; preds = %37
  %46 = load ptr, ptr %7, align 8
  call void @free(ptr noundef %46) #11
  br label %49

47:                                               ; preds = %37
  %48 = load ptr, ptr %7, align 8
  call void @_efree(ptr noundef %48) #11
  br label %49

49:                                               ; preds = %47, %45
  br label %50

50:                                               ; preds = %49, %28
  br label %51

51:                                               ; preds = %50, %3
  ret void
}