; Function Attrs: nounwind uwtable
define void @zend_enum_add_case_cstr(ptr noundef %0, ptr noundef %1, ptr noundef %2) local_unnamed_addr #0 {
  %4 = load ptr, ptr @zend_string_init_interned, align 8
  %5 = tail call i64 @strlen(ptr noundef nonnull dereferenceable(1) %1) #14
  %6 = tail call ptr %4(ptr noundef %1, i64 noundef %5, i1 noundef zeroext true) #12
  tail call void @zend_enum_add_case(ptr noundef %0, ptr noundef %6, ptr noundef %2)
  %7 = getelementptr inbounds i8, ptr %6, i64 4
  %8 = load i32, ptr %7, align 4
  %9 = and i32 %8, 64
  %.not = icmp eq i32 %9, 0
  br i1 %.not, label %10, label %19

10:                                               ; preds = %3
  %11 = load i32, ptr %6, align 4
  %12 = icmp ne i32 %11, 0
  tail call void @llvm.assume(i1 %12)
  %13 = add i32 %11, -1
  store i32 %13, ptr %6, align 4
  %14 = icmp eq i32 %13, 0
  br i1 %14, label %15, label %19

15:                                               ; preds = %10
  %16 = and i32 %8, 128
  %.not14 = icmp eq i32 %16, 0
  br i1 %.not14, label %18, label %17

17:                                               ; preds = %15
  tail call void @free(ptr noundef nonnull %6) #12
  br label %19

18:                                               ; preds = %15
  tail call void @_efree(ptr noundef nonnull %6) #12
  br label %19

19:                                               ; preds = %10, %18, %17, %3
  ret void
}